; Function Attrs: mustprogress nounwind uwtable
define internal fastcc noundef zeroext i1 @_ZN12_GLOBAL__N_110MasmParser16parseBracketExprERPKN4llvm6MCExprERNS1_5SMLocE(ptr noundef nonnull align 8 dereferenceable(1144) %0, ptr noundef nonnull align 8 dereferenceable(8) %1, ptr noundef nonnull writeonly align 8 captures(none) dereferenceable(8) %2) unnamed_addr #0 align 2 {
  %4 = alloca %"class.llvm::SMLoc", align 8
  %5 = alloca %"class.llvm::Twine", align 8
  call void @llvm.lifetime.start.p0(i64 8, ptr nonnull %4)
  store ptr null, ptr %4, align 8
  %6 = load ptr, ptr %0, align 8
  %7 = getelementptr inbounds nuw i8, ptr %6, i64 232
  %8 = load ptr, ptr %7, align 8
  %9 = call noundef zeroext i1 %8(ptr noundef nonnull align 8 dereferenceable(1144) %0, ptr noundef nonnull align 8 dereferenceable(8) %1, ptr noundef nonnull align 8 dereferenceable(8) %4) #24
  call void @llvm.lifetime.end.p0(i64 8, ptr nonnull %4)
  br i1 %9, label %16, label %10

10:                                               ; preds = %3
  %11 = call noundef nonnull align 8 dereferenceable(40) ptr @_ZNK4llvm11MCAsmParser6getTokEv(ptr noundef nonnull align 8 dereferenceable(34) %0) #24
  %12 = call ptr @_ZNK4llvm8AsmToken9getEndLocEv(ptr noundef nonnull align 8 dereferenceable(40) %11) #24
  store ptr %12, ptr %2, align 8
  %13 = getelementptr inbounds nuw i8, ptr %5, i64 32
  %14 = getelementptr inbounds nuw i8, ptr %5, i64 33
  store i8 1, ptr %14, align 1
  store ptr @.str.414, ptr %5, align 8
  store i8 3, ptr %13, align 8
  %15 = call noundef zeroext i1 @_ZN4llvm11MCAsmParser10parseTokenENS_8AsmToken9TokenKindERKNS_5TwineE(ptr noundef nonnull align 8 dereferenceable(34) %0, i32 noundef 20, ptr noundef nonnull align 8 dereferenceable(34) %5) #24
  br label %16

16:                                               ; preds = %10, %3
  %.0 = phi i1 [ true, %3 ], [ %15, %10 ]
  ret i1 %.0
}